Certificate:
    Data:
        Version: 3 (0x2)
        Serial Number: 211 (0xd3)
        Signature Algorithm: sha256WithRSAEncryption
        Issuer: C=US, ST=Washington, L=Seattle, O=getaCert - www.getacert.com
        Validity
            Not Before: Oct 14 10:51:21 2021 GMT
            Not After : Dec 13 10:51:21 2021 GMT
        Subject: C=AU, ST=Victoria, L=Melbourne, O=Cryptalk Ltd, CN=ec2-3-24-215-60.ap-southeast-2.compute.amazonaws.com/emailAddress=mikejurie.work@gmail.com
        Subject Public Key Info:
            Public Key Algorithm: rsaEncryption
                RSA Public-Key: (4096 bit)
                Modulus:
                    00:a7:b0:de:10:57:df:3f:18:55:45:ca:a0:a5:88:
                    d3:cd:9f:2b:c2:fb:f3:ed:2e:30:da:39:91:d8:74:
                    12:ce:b9:01:b2:2b:ab:ad:93:da:e6:13:42:c1:2c:
                    60:a9:c3:30:50:d3:b0:1b:4a:33:6d:1e:d9:b6:fd:
                    c7:a9:0d:14:e0:f8:bb:6c:bd:46:71:d1:a6:69:a7:
                    f6:52:ae:2b:97:fc:fd:2b:b5:2f:c1:24:7e:76:d9:
                    0a:9c:38:d9:81:59:b1:1c:ee:73:e7:98:c7:9a:8c:
                    f3:ed:8f:c9:9a:28:bc:b0:d4:2f:54:fc:7e:33:80:
                    d3:b1:3c:67:f8:ab:88:f8:8c:eb:76:8f:d7:91:b0:
                    49:03:6b:d2:c7:fe:a9:e4:01:00:16:f6:42:7e:40:
                    a8:7c:12:39:7e:86:89:76:b6:78:b7:30:9b:b1:9b:
                    80:d3:d0:08:53:6b:b4:33:97:28:b8:53:d9:b0:dd:
                    fc:39:f3:e2:cc:10:29:da:96:a2:df:ac:db:2a:86:
                    70:cc:c5:e3:b5:66:6e:4b:0e:96:ad:18:60:f2:bc:
                    a2:9c:32:0f:68:4f:8a:12:7d:61:90:87:59:06:e1:
                    15:7d:7c:34:a6:88:78:fa:b0:3a:c1:4a:08:2b:79:
                    26:7f:a7:73:56:1c:8e:b9:4f:47:b1:06:29:fb:f7:
                    bb:35:b4:a1:e8:4b:ea:5b:0f:ed:30:93:4c:5f:9e:
                    65:83:2b:f6:91:40:48:a1:d6:b6:63:cc:bd:25:c6:
                    70:34:01:37:36:26:71:85:ba:9d:59:3d:a5:cd:a9:
                    13:c2:ba:bc:41:54:8d:07:f2:eb:43:2c:c3:20:dc:
                    79:8f:ab:4c:c8:98:f8:e5:c9:1b:15:87:b4:e8:87:
                    be:6b:f7:a5:6b:4a:2d:90:48:20:65:89:18:a9:58:
                    ae:34:8d:87:fa:28:47:0e:bc:50:98:f1:2d:b3:f8:
                    c9:a8:58:cc:70:09:29:22:51:c6:75:02:4c:4b:ff:
                    7e:4f:d1:40:bd:bb:5a:a0:b2:fc:ca:bd:cc:1e:d1:
                    9b:2a:e7:ac:a9:57:2a:f7:34:54:a8:04:6c:41:de:
                    42:83:1d:dd:44:44:76:e3:e7:12:52:d1:52:4b:81:
                    b7:b9:17:12:17:c1:36:0b:36:cf:dd:ef:d9:be:d6:
                    3a:53:b9:02:af:ec:87:9c:f5:13:32:d1:2d:6c:8a:
                    9c:98:81:01:1c:d3:fa:c9:85:be:3f:2e:60:2d:4c:
                    1d:38:29:a5:9a:97:1d:b7:a4:6d:63:46:78:e2:66:
                    31:9f:53:f9:f7:cb:28:d0:bc:01:56:e2:4d:96:e3:
                    5a:98:4f:5d:17:eb:ae:f8:bd:59:dc:40:b0:7f:84:
                    61:42:1f
                Exponent: 65537 (0x10001)
        X509v3 extensions:
            X509v3 Basic Constraints: 
                CA:FALSE
            Netscape Cert Type: 
                SSL Client, SSL Server, S/MIME, Object Signing
            X509v3 Key Usage: 
                Digital Signature, Key Encipherment
            X509v3 Extended Key Usage: 
                TLS Web Client Authentication, TLS Web Server Authentication
    Signature Algorithm: sha256WithRSAEncryption
         4d:53:3c:08:21:03:7a:6f:fa:a4:4d:49:75:b3:60:30:02:47:
         d5:59:71:58:58:ab:1e:3e:51:e9:a6:d4:80:47:3f:72:0b:c3:
         03:6a:df:f5:ce:4b:48:ca:f3:05:91:65:a3:a3:ca:d3:4a:8f:
         39:68:1b:2a:1c:9e:96:62:f5:ef:b9:f1:f4:ce:73:fa:1d:b8:
         ef:71:21:10:92:3b:ba:b0:58:82:65:3f:bb:7b:f3:28:88:87:
         af:e5:d5:dd:2a:05:66:71:13:4c:db:87:77:32:cd:8a:2e:0e:
         2c:35:c4:80:c9:c8:f5:7a:25:2a:fb:3d:3e:f8:e0:28:98:5a:
         1a:61:ce:52:18:b8:c2:b5:d0:a8:e7:01:52:df:34:5e:55:c4:
         20:ed:8e:02:27:4e:15:a2:8b:1d:85:ff:a7:8c:19:cb:46:8f:
         0e:28:4b:60:75:4b:05:f8:a0:55:7a:48:ff:04:12:1f:e6:00:
         81:b5:cd:94:36:f2:71:09:5d:84:ad:32:23:f5:4f:85:62:25:
         4d:c0:50:a6:64:92:c3:f3:6a:df:5c:7d:8c:c4:68:93:31:ef:
         3d:9f:49:ac:ca:21:11:39:77:eb:43:16:6f:79:71:e7:96:7b:
         b2:fd:2a:cd:2b:1b:60:11:6c:b3:3e:f3:58:6d:98:42:f6:40:
         37:d4:9c:45
-----BEGIN CERTIFICATE-----
MIIE1jCCA76gAwIBAgICANMwDQYJKoZIhvcNAQELBQAwWjELMAkGA1UEBhMCVVMx
EzARBgNVBAgTCldhc2hpbmd0b24xEDAOBgNVBAcTB1NlYXR0bGUxJDAiBgNVBAoT
G2dldGFDZXJ0IC0gd3d3LmdldGFjZXJ0LmNvbTAeFw0yMTEwMTQxMDUxMjFaFw0y
MTEyMTMxMDUxMjFaMIGzMQswCQYDVQQGEwJBVTERMA8GA1UECAwIVmljdG9yaWEx
EjAQBgNVBAcMCU1lbGJvdXJuZTEVMBMGA1UECgwMQ3J5cHRhbGsgTHRkMT0wOwYD
VQQDDDRlYzItMy0yNC0yMTUtNjAuYXAtc291dGhlYXN0LTIuY29tcHV0ZS5hbWF6
b25hd3MuY29tMScwJQYJKoZIhvcNAQkBFhhtaWtlanVyaWUud29ya0BnbWFpbC5j
b20wggIiMA0GCSqGSIb3DQEBAQUAA4ICDwAwggIKAoICAQCnsN4QV98/GFVFyqCl
iNPNnyvC+/PtLjDaOZHYdBLOuQGyK6utk9rmE0LBLGCpwzBQ07AbSjNtHtm2/cep
DRTg+LtsvUZx0aZpp/ZSriuX/P0rtS/BJH522QqcONmBWbEc7nPnmMeajPPtj8ma
KLyw1C9U/H4zgNOxPGf4q4j4jOt2j9eRsEkDa9LH/qnkAQAW9kJ+QKh8Ejl+hol2
tni3MJuxm4DT0AhTa7Qzlyi4U9mw3fw58+LMECnalqLfrNsqhnDMxeO1Zm5LDpat
GGDyvKKcMg9oT4oSfWGQh1kG4RV9fDSmiHj6sDrBSggreSZ/p3NWHI65T0exBin7
97s1tKHoS+pbD+0wk0xfnmWDK/aRQEih1rZjzL0lxnA0ATc2JnGFup1ZPaXNqRPC
urxBVI0H8utDLMMg3HmPq0zImPjlyRsVh7Toh75r96VrSi2QSCBliRipWK40jYf6
KEcOvFCY8S2z+MmoWMxwCSkiUcZ1AkxL/35P0UC9u1qgsvzKvcwe0Zsq56ypVyr3
NFSoBGxB3kKDHd1ERHbj5xJS0VJLgbe5FxIXwTYLNs/d79m+1jpTuQKv7Iec9RMy
0S1sipyYgQEc0/rJhb4/LmAtTB04KaWalx23pG1jRnjiZjGfU/n3yyjQvAFW4k2W
41qYT10X6674vVncQLB/hGFCHwIDAQABo0wwSjAJBgNVHRMEAjAAMBEGCWCGSAGG
+EIBAQQEAwIE8DALBgNVHQ8EBAMCBaAwHQYDVR0lBBYwFAYIKwYBBQUHAwIGCCsG
AQUFBwMBMA0GCSqGSIb3DQEBCwUAA4IBAQBNUzwIIQN6b/qkTUl1s2AwAkfVWXFY
WKsePlHpptSARz9yC8MDat/1zktIyvMFkWWjo8rTSo85aBsqHJ6WYvXvufH0znP6
HbjvcSEQkju6sFiCZT+7e/MoiIev5dXdKgVmcRNM24d3Ms2KLg4sNcSAycj1eiUq
+z0++OAomFoaYc5SGLjCtdCo5wFS3zReVcQg7Y4CJ04Voosdhf+njBnLRo8OKEtg
dUsF+KBVekj/BBIf5gCBtc2UNvJxCV2ErTIj9U+FYiVNwFCmZJLD82rfXH2MxGiT
Me89n0msyiEROXfrQxZveXHnlnuy/SrNKxtgEWyzPvNYbZhC9kA31JxF
-----END CERTIFICATE-----
